target datalayout = "e-m:e-p270:32:32-p271:32:32-p272:64:64-i64:64-i128:128-f80:128-n8:16:32:64-S128"
target triple = "x86_64-pc-linux-gnu"

%struct._packet_info = type { ptr, ptr, i32, i32, %struct.nstime_t, %struct.nstime_t, %struct.nstime_t, i8, ptr, ptr, ptr, ptr, %struct._address, %struct._address, %struct._address, %struct._address, %struct._address, %struct._address, i32, ptr, i8, [3 x i8], %struct.anon, i32, i32, i32, i32, ptr, i8, ptr, ptr, i16, i16, i32, i32, i16, i32, i32, ptr, ptr, ptr, i8, i8, i16, i16, i16, i32, i16, i16, ptr, ptr, ptr, ptr, ptr, i32, i32 }
%struct.nstime_t = type { i64, i32 }
%struct._address = type { i32, i32, ptr, ptr }
%struct.anon = type { i8, [3 x i8] }

@hf_ecmp_cyclic_data = internal global i32 0, align 4
@.str.621 = private unnamed_addr constant [3 x i8] c"%s\00", align 1
@.str.632 = private unnamed_addr constant [1 x i8] zeroinitializer, align 1
@cyclic_display_byte_format = internal constant i8 0, align 1
@.str.660 = private unnamed_addr constant [8 x i8] c"No data\00", align 1
@.str.661 = private unnamed_addr constant [5 x i8] c"%02x\00", align 1
@.str.662 = private unnamed_addr constant [5 x i8] c"%04x\00", align 1
@.str.663 = private unnamed_addr constant [5 x i8] c"%08x\00", align 1

; Function Attrs: null_pointer_is_valid sspstrong uwtable
define internal i32 @display_raw_cyclic_data(i8 noundef zeroext %0, i32 noundef %1, i16 noundef zeroext %2, ptr noundef %3, ptr noundef %4, ptr noundef %5) #0 {
  %7 = alloca i8, align 1
  %8 = alloca i32, align 4
  %9 = alloca i16, align 2
  %10 = alloca ptr, align 8
  %11 = alloca ptr, align 8
  %12 = alloca ptr, align 8
  %13 = alloca ptr, align 8
  %14 = alloca i16, align 2
  %15 = alloca i16, align 2
  %16 = alloca i16, align 2
  %17 = alloca i16, align 2
  %18 = alloca i16, align 2
  %19 = alloca i16, align 2
  %20 = alloca i16, align 2
  %21 = alloca i32, align 4
  %22 = alloca i32, align 4
  %23 = alloca i8, align 1
  %24 = alloca i16, align 2
  %25 = alloca i32, align 4
  store i8 %0, ptr %7, align 1
  store i32 %1, ptr %8, align 4
  store i16 %2, ptr %9, align 2
  store ptr %3, ptr %10, align 8
  store ptr %4, ptr %11, align 8
  store ptr %5, ptr %12, align 8
  %26 = load i16, ptr %9, align 2
  %27 = zext i16 %26 to i32
  %28 = icmp eq i32 %27, 0
  br i1 %28, label %29, label %36

29:                                               ; preds = %6
  %30 = load ptr, ptr %12, align 8
  %31 = load i32, ptr @hf_ecmp_cyclic_data, align 4
  %32 = load ptr, ptr %10, align 8
  %33 = load i32, ptr %8, align 4
  %34 = sub i32 %33, 1
  %35 = call ptr (ptr, i32, ptr, i32, i32, ptr, ptr, ...) @proto_tree_add_bytes_format_value(ptr noundef %30, i32 noundef %31, ptr noundef %32, i32 noundef %34, i32 noundef 0, ptr noundef null, ptr noundef @.str.660)
  br label %167

36:                                               ; preds = %6
  call void @llvm.lifetime.start.p0(i64 8, ptr %13) #3
  %37 = load ptr, ptr %11, align 8
  %38 = getelementptr inbounds nuw %struct._packet_info, ptr %37, i32 0, i32 51
  %39 = load ptr, ptr %38, align 8
  %40 = call noalias ptr @wmem_strbuf_new(ptr noundef %39, ptr noundef @.str.632)
  store ptr %40, ptr %13, align 8
  call void @llvm.lifetime.start.p0(i64 2, ptr %14) #3
  store i16 0, ptr %14, align 2
  call void @llvm.lifetime.start.p0(i64 2, ptr %15) #3
  store i16 16, ptr %15, align 2
  call void @llvm.lifetime.start.p0(i64 2, ptr %16) #3
  store i16 16, ptr %16, align 2
  call void @llvm.lifetime.start.p0(i64 2, ptr %17) #3
  store i16 8, ptr %17, align 2
  call void @llvm.lifetime.start.p0(i64 2, ptr %18) #3
  store i16 8, ptr %18, align 2
  call void @llvm.lifetime.start.p0(i64 2, ptr %19) #3
  store i16 0, ptr %19, align 2
  call void @llvm.lifetime.start.p0(i64 2, ptr %20) #3
  store i16 0, ptr %20, align 2
  call void @llvm.lifetime.start.p0(i64 4, ptr %21) #3
  call void @llvm.lifetime.start.p0(i64 4, ptr %22) #3
  %41 = load i8, ptr %7, align 1
  %42 = zext i8 %41 to i32
  %43 = load i8, ptr @cyclic_display_byte_format, align 1
  %44 = zext i8 %43 to i32
  %45 = icmp eq i32 %42, %44
  br i1 %45, label %46, label %48

46:                                               ; preds = %36
  store i16 16, ptr %18, align 2
  %47 = load i16, ptr %9, align 2
  store i16 %47, ptr %14, align 2
  br label %70

48:                                               ; preds = %36
  %49 = load i8, ptr %7, align 1
  %50 = zext i8 %49 to i32
  %51 = icmp eq i32 %50, 1
  br i1 %51, label %52, label %57

52:                                               ; preds = %48
  store i16 16, ptr %18, align 2
  %53 = load i16, ptr %9, align 2
  %54 = zext i16 %53 to i32
  %55 = ashr i32 %54, 1
  %56 = trunc i32 %55 to i16
  store i16 %56, ptr %14, align 2
  br label %69

57:                                               ; preds = %48
  %58 = load i8, ptr %7, align 1
  %59 = zext i8 %58 to i32
  %60 = icmp eq i32 %59, 2
  br i1 %60, label %61, label %66

61:                                               ; preds = %57
  store i16 8, ptr %18, align 2
  %62 = load i16, ptr %9, align 2
  %63 = zext i16 %62 to i32
  %64 = ashr i32 %63, 2
  %65 = trunc i32 %64 to i16
  store i16 %65, ptr %14, align 2
  br label %68

66:                                               ; preds = %57
  store i16 16, ptr %18, align 2
  %67 = load i16, ptr %9, align 2
  store i16 %67, ptr %14, align 2
  br label %68

68:                                               ; preds = %66, %61
  br label %69

69:                                               ; preds = %68, %52
  br label %70

70:                                               ; preds = %69, %46
  store i16 0, ptr %19, align 2
  %71 = load i32, ptr %8, align 4
  store i32 %71, ptr %21, align 4
  store i32 %71, ptr %22, align 4
  store i16 0, ptr %20, align 2
  br label %72

72:                                               ; preds = %148, %70
  %73 = load i16, ptr %20, align 2
  %74 = zext i16 %73 to i32
  %75 = load i16, ptr %14, align 2
  %76 = zext i16 %75 to i32
  %77 = icmp slt i32 %74, %76
  br i1 %77, label %78, label %151

78:                                               ; preds = %72
  %79 = load ptr, ptr %13, align 8
  %80 = call i64 @wmem_strbuf_get_len(ptr noundef %79)
  %81 = icmp ugt i64 %80, 0
  br i1 %81, label %82, label %84

82:                                               ; preds = %78
  %83 = load ptr, ptr %13, align 8
  call void @wmem_strbuf_append_c(ptr noundef %83, i8 noundef signext 32)
  br label %84

84:                                               ; preds = %82, %78
  %85 = load i8, ptr %7, align 1
  %86 = zext i8 %85 to i32
  %87 = load i8, ptr @cyclic_display_byte_format, align 1
  %88 = zext i8 %87 to i32
  %89 = icmp eq i32 %86, %88
  br i1 %89, label %90, label %99

90:                                               ; preds = %84
  call void @llvm.lifetime.start.p0(i64 1, ptr %23) #3
  %91 = load ptr, ptr %10, align 8
  %92 = load i32, ptr %8, align 4
  %93 = call zeroext i8 @tvb_get_uint8(ptr noundef %91, i32 noundef %92)
  store i8 %93, ptr %23, align 1
  %94 = load ptr, ptr %13, align 8
  %95 = load i8, ptr %23, align 1
  %96 = zext i8 %95 to i32
  call void (ptr, ptr, ...) @wmem_strbuf_append_printf(ptr noundef %94, ptr noundef @.str.661, i32 noundef %96)
  %97 = load i32, ptr %8, align 4
  %98 = add i32 %97, 1
  store i32 %98, ptr %8, align 4
  call void @llvm.lifetime.end.p0(i64 1, ptr %23) #3
  br label %126

99:                                               ; preds = %84
  %100 = load i8, ptr %7, align 1
  %101 = zext i8 %100 to i32
  %102 = icmp eq i32 %101, 1
  br i1 %102, label %103, label %112

103:                                              ; preds = %99
  call void @llvm.lifetime.start.p0(i64 2, ptr %24) #3
  %104 = load ptr, ptr %10, align 8
  %105 = load i32, ptr %8, align 4
  %106 = call zeroext i16 @tvb_get_ntohs(ptr noundef %104, i32 noundef %105)
  store i16 %106, ptr %24, align 2
  %107 = load ptr, ptr %13, align 8
  %108 = load i16, ptr %24, align 2
  %109 = zext i16 %108 to i32
  call void (ptr, ptr, ...) @wmem_strbuf_append_printf(ptr noundef %107, ptr noundef @.str.662, i32 noundef %109)
  %110 = load i32, ptr %8, align 4
  %111 = add i32 %110, 2
  store i32 %111, ptr %8, align 4
  call void @llvm.lifetime.end.p0(i64 2, ptr %24) #3
  br label %125

112:                                              ; preds = %99
  %113 = load i8, ptr %7, align 1
  %114 = zext i8 %113 to i32
  %115 = icmp eq i32 %114, 2
  br i1 %115, label %116, label %124

116:                                              ; preds = %112
  call void @llvm.lifetime.start.p0(i64 4, ptr %25) #3
  %117 = load ptr, ptr %10, align 8
  %118 = load i32, ptr %8, align 4
  %119 = call i32 @tvb_get_ntohl(ptr noundef %117, i32 noundef %118)
  store i32 %119, ptr %25, align 4
  %120 = load ptr, ptr %13, align 8
  %121 = load i32, ptr %25, align 4
  call void (ptr, ptr, ...) @wmem_strbuf_append_printf(ptr noundef %120, ptr noundef @.str.663, i32 noundef %121)
  %122 = load i32, ptr %8, align 4
  %123 = add i32 %122, 4
  store i32 %123, ptr %8, align 4
  call void @llvm.lifetime.end.p0(i64 4, ptr %25) #3
  br label %124

124:                                              ; preds = %116, %112
  br label %125

125:                                              ; preds = %124, %103
  br label %126

126:                                              ; preds = %125, %90
  %127 = load i16, ptr %19, align 2
  %128 = add i16 %127, 1
  store i16 %128, ptr %19, align 2
  %129 = load i16, ptr %19, align 2
  %130 = zext i16 %129 to i32
  %131 = load i16, ptr %18, align 2
  %132 = zext i16 %131 to i32
  %133 = icmp sge i32 %130, %132
  br i1 %133, label %134, label %147

134:                                              ; preds = %126
  %135 = load ptr, ptr %12, align 8
  %136 = load i32, ptr @hf_ecmp_cyclic_data, align 4
  %137 = load ptr, ptr %10, align 8
  %138 = load i32, ptr %8, align 4
  %139 = load i32, ptr %8, align 4
  %140 = load i32, ptr %22, align 4
  %141 = sub i32 %139, %140
  %142 = load ptr, ptr %13, align 8
  %143 = call ptr @wmem_strbuf_get_str(ptr noundef %142)
  %144 = call ptr (ptr, i32, ptr, i32, i32, ptr, ptr, ...) @proto_tree_add_bytes_format(ptr noundef %135, i32 noundef %136, ptr noundef %137, i32 noundef %138, i32 noundef %141, ptr noundef null, ptr noundef @.str.621, ptr noundef %143)
  %145 = load ptr, ptr %13, align 8
  call void @wmem_strbuf_truncate(ptr noundef %145, i64 noundef 0)
  store i16 0, ptr %19, align 2
  %146 = load i32, ptr %8, align 4
  store i32 %146, ptr %22, align 4
  br label %147

147:                                              ; preds = %134, %126
  br label %148

148:                                              ; preds = %147
  %149 = load i16, ptr %20, align 2
  %150 = add i16 %149, 1
  store i16 %150, ptr %20, align 2
  br label %72, !llvm.loop !26

151:                                              ; preds = %72
  %152 = load i16, ptr %19, align 2
  %153 = zext i16 %152 to i32
  %154 = icmp sgt i32 %153, 0
  br i1 %154, label %155, label %166

155:                                              ; preds = %151
  %156 = load ptr, ptr %12, align 8
  %157 = load i32, ptr @hf_ecmp_cyclic_data, align 4
  %158 = load ptr, ptr %10, align 8
  %159 = load i32, ptr %21, align 4
  %160 = load i32, ptr %8, align 4
  %161 = load i32, ptr %21, align 4
  %162 = sub i32 %160, %161
  %163 = load ptr, ptr %13, align 8
  %164 = call ptr @wmem_strbuf_get_str(ptr noundef %163)
  %165 = call ptr (ptr, i32, ptr, i32, i32, ptr, ptr, ...) @proto_tree_add_bytes_format(ptr noundef %156, i32 noundef %157, ptr noundef %158, i32 noundef %159, i32 noundef %162, ptr noundef null, ptr noundef @.str.621, ptr noundef %164)
  br label %166

166:                                              ; preds = %155, %151
  call void @llvm.lifetime.end.p0(i64 4, ptr %22) #3
  call void @llvm.lifetime.end.p0(i64 4, ptr %21) #3
  call void @llvm.lifetime.end.p0(i64 2, ptr %20) #3
  call void @llvm.lifetime.end.p0(i64 2, ptr %19) #3
  call void @llvm.lifetime.end.p0(i64 2, ptr %18) #3
  call void @llvm.lifetime.end.p0(i64 2, ptr %17) #3
  call void @llvm.lifetime.end.p0(i64 2, ptr %16) #3
  call void @llvm.lifetime.end.p0(i64 2, ptr %15) #3
  call void @llvm.lifetime.end.p0(i64 2, ptr %14) #3
  call void @llvm.lifetime.end.p0(i64 8, ptr %13) #3
  br label %167

167:                                              ; preds = %166, %29
  %168 = load i32, ptr %8, align 4
  ret i32 %168
}