; Function Attrs: null_pointer_is_valid sspstrong uwtable
define internal fastcc void @display_raw_cyclic_data(i8 noundef zeroext range(i8 0, 3) %0, i32 noundef range(i32 10, 27) %1, i16 noundef zeroext %2, ptr noundef %3, ptr noundef readonly captures(none) %4, ptr noundef %5) unnamed_addr #0 {
  %7 = icmp eq i16 %2, 0
  br i1 %7, label %8, label %12

8:                                                ; preds = %6
  %9 = load i32, ptr @hf_ecmp_cyclic_data, align 4
  %10 = add nsw i32 %1, -1
  %11 = tail call ptr (ptr, i32, ptr, i32, i32, ptr, ptr, ...) @proto_tree_add_bytes_format_value(ptr noundef %5, i32 noundef %9, ptr noundef %3, i32 noundef %10, i32 noundef 0, ptr noundef null, ptr noundef nonnull @.str.660)
  br label %._crit_edge.thread

12:                                               ; preds = %6
  %13 = getelementptr inbounds nuw i8, ptr %4, i64 408
  %14 = load ptr, ptr %13, align 8
  %15 = tail call noalias ptr @wmem_strbuf_new(ptr noundef %14, ptr noundef nonnull @.str.632)
  switch i8 %0, label %.thread101 [
    i8 0, label %.lr.ph.split.us
    i8 1, label %16
  ]

16:                                               ; preds = %12
  %17 = lshr i16 %2, 1
  %.not85 = icmp eq i16 %2, 1
  br i1 %.not85, label %._crit_edge.thread, label %.lr.ph.split.split.us

.thread101:                                       ; preds = %12
  %18 = lshr i16 %2, 2
  %.not85104 = icmp ult i16 %2, 4
  br i1 %.not85104, label %._crit_edge.thread, label %.lr.ph.split.split

.lr.ph.split.us:                                  ; preds = %12, %31
  %.169.us = phi i32 [ %24, %31 ], [ %1, %12 ]
  %.05668.us = phi i32 [ %.157.us, %31 ], [ %1, %12 ]
  %.05867.us = phi i16 [ %.159.us, %31 ], [ 0, %12 ]
  %.06066.us = phi i16 [ %32, %31 ], [ 0, %12 ]
  %19 = tail call i64 @wmem_strbuf_get_len(ptr noundef %15)
  %.not64.us = icmp eq i64 %19, 0
  br i1 %.not64.us, label %21, label %20

20:                                               ; preds = %.lr.ph.split.us
  tail call void @wmem_strbuf_append_c(ptr noundef %15, i8 noundef signext 32)
  br label %21

21:                                               ; preds = %20, %.lr.ph.split.us
  %22 = tail call zeroext i8 @tvb_get_uint8(ptr noundef %3, i32 noundef %.169.us)
  %23 = zext i8 %22 to i32
  tail call void (ptr, ptr, ...) @wmem_strbuf_append_printf(ptr noundef %15, ptr noundef nonnull @.str.661, i32 noundef %23)
  %24 = add nuw nsw i32 %.169.us, 1
  %25 = add i16 %.05867.us, 1
  %.not65.us = icmp ult i16 %25, 16
  br i1 %.not65.us, label %31, label %26

26:                                               ; preds = %21
  %27 = load i32, ptr @hf_ecmp_cyclic_data, align 4
  %28 = sub i32 %24, %.05668.us
  %29 = tail call ptr @wmem_strbuf_get_str(ptr noundef %15)
  %30 = tail call ptr (ptr, i32, ptr, i32, i32, ptr, ptr, ...) @proto_tree_add_bytes_format(ptr noundef %5, i32 noundef %27, ptr noundef %3, i32 noundef %24, i32 noundef %28, ptr noundef null, ptr noundef nonnull @.str.621, ptr noundef %29)
  tail call void @wmem_strbuf_truncate(ptr noundef %15, i64 noundef 0)
  br label %31

31:                                               ; preds = %26, %21
  %.159.us = phi i16 [ 0, %26 ], [ %25, %21 ]
  %.157.us = phi i32 [ %24, %26 ], [ %.05668.us, %21 ]
  %32 = add nuw i16 %.06066.us, 1
  %exitcond91.not = icmp eq i16 %32, %2
  br i1 %exitcond91.not, label %._crit_edge, label %.lr.ph.split.us, !llvm.loop !24

.lr.ph.split.split.us:                            ; preds = %16, %45
  %.169.us72 = phi i32 [ %38, %45 ], [ %1, %16 ]
  %.05668.us73 = phi i32 [ %.157.us80, %45 ], [ %1, %16 ]
  %.05867.us74 = phi i16 [ %.159.us79, %45 ], [ 0, %16 ]
  %.06066.us75 = phi i16 [ %46, %45 ], [ 0, %16 ]
  %33 = tail call i64 @wmem_strbuf_get_len(ptr noundef %15)
  %.not64.us76 = icmp eq i64 %33, 0
  br i1 %.not64.us76, label %35, label %34

34:                                               ; preds = %.lr.ph.split.split.us
  tail call void @wmem_strbuf_append_c(ptr noundef %15, i8 noundef signext 32)
  br label %35

35:                                               ; preds = %34, %.lr.ph.split.split.us
  %36 = tail call zeroext i16 @tvb_get_ntohs(ptr noundef %3, i32 noundef %.169.us72)
  %37 = zext i16 %36 to i32
  tail call void (ptr, ptr, ...) @wmem_strbuf_append_printf(ptr noundef %15, ptr noundef nonnull @.str.662, i32 noundef %37)
  %38 = add nuw nsw i32 %.169.us72, 2
  %39 = add i16 %.05867.us74, 1
  %.not65.us78 = icmp ult i16 %39, 16
  br i1 %.not65.us78, label %45, label %40

40:                                               ; preds = %35
  %41 = load i32, ptr @hf_ecmp_cyclic_data, align 4
  %42 = sub i32 %38, %.05668.us73
  %43 = tail call ptr @wmem_strbuf_get_str(ptr noundef %15)
  %44 = tail call ptr (ptr, i32, ptr, i32, i32, ptr, ptr, ...) @proto_tree_add_bytes_format(ptr noundef %5, i32 noundef %41, ptr noundef %3, i32 noundef %38, i32 noundef %42, ptr noundef null, ptr noundef nonnull @.str.621, ptr noundef %43)
  tail call void @wmem_strbuf_truncate(ptr noundef %15, i64 noundef 0)
  br label %45

45:                                               ; preds = %40, %35
  %.159.us79 = phi i16 [ 0, %40 ], [ %39, %35 ]
  %.157.us80 = phi i32 [ %38, %40 ], [ %.05668.us73, %35 ]
  %46 = add nuw i16 %.06066.us75, 1
  %exitcond90.not = icmp eq i16 %46, %17
  br i1 %exitcond90.not, label %._crit_edge, label %.lr.ph.split.split.us, !llvm.loop !24

.lr.ph.split.split:                               ; preds = %.thread101, %58
  %.169 = phi i32 [ %51, %58 ], [ %1, %.thread101 ]
  %.05668 = phi i32 [ %.157, %58 ], [ %1, %.thread101 ]
  %.05867 = phi i16 [ %.159, %58 ], [ 0, %.thread101 ]
  %.06066 = phi i16 [ %59, %58 ], [ 0, %.thread101 ]
  %47 = tail call i64 @wmem_strbuf_get_len(ptr noundef %15)
  %.not64 = icmp eq i64 %47, 0
  br i1 %.not64, label %49, label %48

48:                                               ; preds = %.lr.ph.split.split
  tail call void @wmem_strbuf_append_c(ptr noundef %15, i8 noundef signext 32)
  br label %49

49:                                               ; preds = %48, %.lr.ph.split.split
  %50 = tail call i32 @tvb_get_ntohl(ptr noundef %3, i32 noundef %.169)
  tail call void (ptr, ptr, ...) @wmem_strbuf_append_printf(ptr noundef %15, ptr noundef nonnull @.str.663, i32 noundef %50)
  %51 = add nuw nsw i32 %.169, 4
  %52 = add i16 %.05867, 1
  %.not65 = icmp ult i16 %52, 8
  br i1 %.not65, label %58, label %53

53:                                               ; preds = %49
  %54 = load i32, ptr @hf_ecmp_cyclic_data, align 4
  %55 = sub i32 %51, %.05668
  %56 = tail call ptr @wmem_strbuf_get_str(ptr noundef %15)
  %57 = tail call ptr (ptr, i32, ptr, i32, i32, ptr, ptr, ...) @proto_tree_add_bytes_format(ptr noundef %5, i32 noundef %54, ptr noundef %3, i32 noundef %51, i32 noundef %55, ptr noundef null, ptr noundef nonnull @.str.621, ptr noundef %56)
  tail call void @wmem_strbuf_truncate(ptr noundef %15, i64 noundef 0)
  br label %58

58:                                               ; preds = %49, %53
  %.159 = phi i16 [ 0, %53 ], [ %52, %49 ]
  %.157 = phi i32 [ %51, %53 ], [ %.05668, %49 ]
  %59 = add nuw i16 %.06066, 1
  %exitcond.not = icmp eq i16 %59, %18
  br i1 %exitcond.not, label %._crit_edge, label %.lr.ph.split.split, !llvm.loop !24

._crit_edge:                                      ; preds = %45, %31, %58
  %.058.lcssa = phi i16 [ %.159, %58 ], [ %.159.us, %31 ], [ %.159.us79, %45 ]
  %.1.lcssa = phi i32 [ %51, %58 ], [ %24, %31 ], [ %38, %45 ]
  %.not = icmp eq i16 %.058.lcssa, 0
  br i1 %.not, label %._crit_edge.thread, label %60

60:                                               ; preds = %._crit_edge
  %61 = load i32, ptr @hf_ecmp_cyclic_data, align 4
  %62 = sub i32 %.1.lcssa, %1
  %63 = tail call ptr @wmem_strbuf_get_str(ptr noundef %15)
  %64 = tail call ptr (ptr, i32, ptr, i32, i32, ptr, ptr, ...) @proto_tree_add_bytes_format(ptr noundef %5, i32 noundef %61, ptr noundef %3, i32 noundef %1, i32 noundef %62, ptr noundef null, ptr noundef nonnull @.str.621, ptr noundef %63)
  br label %._crit_edge.thread

._crit_edge.thread:                               ; preds = %.thread101, %16, %._crit_edge, %60, %8
  ret void
}